(lp0
(dp1
S'p_LINK_MASS_2'
p2
cnumpy.core.multiarray
scalar
p3
(cnumpy
dtype
p4
(S'f8'
p5
I0
I1
tp6
Rp7
(I3
S'<'
p8
NNNI-1
I-1
I0
tp9
bS'333333\xd3?'
p10
tp11
Rp12
sS'p_LINK_MASS_1'
p13
g12
sS'p_LINK_LENGTH_1'
p14
g12
sS'p_LINK_LENGTH_2'
p15
g12
sa(dp16
g2
g3
(g7
S'333333\xd3?'
p17
tp18
Rp19
sg13
g19
sg14
g19
sg15
g19
sa(dp20
g2
g3
(g7
S'333333\xd3?'
p21
tp22
Rp23
sg13
g23
sg14
g23
sg15
g23
sa(dp24
g2
g3
(g7
S'\x9a\x99\x99\x99\x99\x99\xb9?'
p25
tp26
Rp27
sg13
g27
sg14
g27
sg15
g27
sa(dp28
g2
g3
(g7
S'333333\xd3?'
p29
tp30
Rp31
sg13
g31
sg14
g31
sg15
g31
sa(dp32
g2
g3
(g7
S'\x9a\x99\x99\x99\x99\x99\xb9\xbf'
p33
tp34
Rp35
sg13
g35
sg14
g35
sg15
g35
sa(dp36
g2
g3
(g7
S'333333\xd3\xbf'
p37
tp38
Rp39
sg13
g39
sg14
g39
sg15
g39
sa(dp40
g2
g3
(g7
S'333333\xd3?'
p41
tp42
Rp43
sg13
g43
sg14
g43
sg15
g43
sa(dp44
g2
g3
(g7
S'333333\xd3\xbf'
p45
tp46
Rp47
sg13
g47
sg14
g47
sg15
g47
sa(dp48
g2
g3
(g7
S'\x9a\x99\x99\x99\x99\x99\xb9?'
p49
tp50
Rp51
sg13
g51
sg14
g51
sg15
g51
sa(dp52
g2
g3
(g7
S'333333\xd3?'
p53
tp54
Rp55
sg13
g55
sg14
g55
sg15
g55
sa(dp56
g2
g3
(g7
S'333333\xd3?'
p57
tp58
Rp59
sg13
g59
sg14
g59
sg15
g59
sa(dp60
g2
g3
(g7
S'333333\xd3\xbf'
p61
tp62
Rp63
sg13
g63
sg14
g63
sg15
g63
sa(dp64
g2
g3
(g7
S'ffffff\xd6\xbf'
p65
tp66
Rp67
sg13
g67
sg14
g67
sg15
g67
sa(dp68
g2
g3
(g7
S'ffffff\xd6?'
p69
tp70
Rp71
sg13
g71
sg14
g71
sg15
g71
sa(dp72
g2
g3
(g7
S'ffffff\xd6?'
p73
tp74
Rp75
sg13
g75
sg14
g75
sg15
g75
sa(dp76
g2
g3
(g7
S'\x9a\x99\x99\x99\x99\x99\xc9\xbf'
p77
tp78
Rp79
sg13
g79
sg14
g79
sg15
g79
sa(dp80
g2
g3
(g7
S'\x9a\x99\x99\x99\x99\x99\xc9\xbf'
p81
tp82
Rp83
sg13
g83
sg14
g83
sg15
g83
sa.